target datalayout = "e-m:e-p270:32:32-p271:32:32-p272:64:64-i64:64-i128:128-f80:128-n8:16:32:64-S128"
target triple = "x86_64-unknown-linux-gnu"

%"class.icu_75::OlsonTimeZone" = type { %"class.icu_75::BasicTimeZone", i16, i16, i16, ptr, ptr, ptr, i16, ptr, ptr, ptr, double, i32, ptr, ptr, ptr, i16, ptr, ptr, i16, ptr, %"struct.icu_75::UInitOnce" }
%"class.icu_75::BasicTimeZone" = type { %"class.icu_75::TimeZone" }
%"class.icu_75::TimeZone" = type { %"class.icu_75::UObject", %"class.icu_75::UnicodeString" }
%"class.icu_75::UObject" = type { ptr }
%"class.icu_75::UnicodeString" = type { %"class.icu_75::Replaceable", %"union.icu_75::UnicodeString::StackBufferOrFields" }
%"class.icu_75::Replaceable" = type { %"class.icu_75::UObject" }
%"union.icu_75::UnicodeString::StackBufferOrFields" = type { %struct.anon.0, [32 x i8] }
%struct.anon.0 = type { i16, i32, i32, ptr }
%"struct.icu_75::UInitOnce" = type { %"struct.std::atomic", i32 }
%"struct.std::atomic" = type { %"struct.std::__atomic_base" }
%"struct.std::__atomic_base" = type { i32 }

; Function Attrs: mustprogress nounwind uwtable
define linkonce_odr noundef i32 @_ZNK6icu_7513OlsonTimeZone11dstOffsetAtEs(ptr noundef nonnull align 8 dereferenceable(224) %this, i16 noundef signext %transIdx) #0 comdat align 2 {
entry:
  %this.addr = alloca ptr, align 8
  %transIdx.addr = alloca i16, align 2
  %typeIdx = alloca i16, align 2
  store ptr %this, ptr %this.addr, align 8
  store i16 %transIdx, ptr %transIdx.addr, align 2
  %this1 = load ptr, ptr %this.addr, align 8
  %0 = load i16, ptr %transIdx.addr, align 2
  %conv = sext i16 %0 to i32
  %cmp = icmp sge i32 %conv, 0
  br i1 %cmp, label %cond.true, label %cond.false

cond.true:                                        ; preds = %entry
  %typeMapData = getelementptr inbounds %"class.icu_75::OlsonTimeZone", ptr %this1, i32 0, i32 9
  %1 = load ptr, ptr %typeMapData, align 8
  %2 = load i16, ptr %transIdx.addr, align 2
  %idxprom = sext i16 %2 to i64
  %arrayidx = getelementptr inbounds i8, ptr %1, i64 %idxprom
  %3 = load i8, ptr %arrayidx, align 1
  %conv2 = zext i8 %3 to i32
  br label %cond.end

cond.false:                                       ; preds = %entry
  br label %cond.end

cond.end:                                         ; preds = %cond.false, %cond.true
  %cond = phi i32 [ %conv2, %cond.true ], [ 0, %cond.false ]
  %shl = shl i32 %cond, 1
  %conv3 = trunc i32 %shl to i16
  store i16 %conv3, ptr %typeIdx, align 2
  %typeOffsets = getelementptr inbounds %"class.icu_75::OlsonTimeZone", ptr %this1, i32 0, i32 8
  %4 = load ptr, ptr %typeOffsets, align 8
  %5 = load i16, ptr %typeIdx, align 2
  %conv4 = sext i16 %5 to i32
  %add = add nsw i32 %conv4, 1
  %idxprom5 = sext i32 %add to i64
  %arrayidx6 = getelementptr inbounds i32, ptr %4, i64 %idxprom5
  %6 = load i32, ptr %arrayidx6, align 4
  ret i32 %6
}

; Function Attrs: mustprogress nounwind uwtable
define noundef i64 @_ZNK6icu_7513OlsonTimeZone23transitionTimeInSecondsEs(ptr noundef nonnull align 8 dereferenceable(224) %this, i16 noundef signext %transIdx) #0 align 2 {
entry:
  %retval = alloca i64, align 8
  %this.addr = alloca ptr, align 8
  %transIdx.addr = alloca i16, align 2
  store ptr %this, ptr %this.addr, align 8
  store i16 %transIdx, ptr %transIdx.addr, align 2
  %this1 = load ptr, ptr %this.addr, align 8
  %0 = load i16, ptr %transIdx.addr, align 2
  %conv = sext i16 %0 to i32
  %transitionCountPre32 = getelementptr inbounds %"class.icu_75::OlsonTimeZone", ptr %this1, i32 0, i32 1
  %1 = load i16, ptr %transitionCountPre32, align 8
  %conv2 = sext i16 %1 to i32
  %cmp = icmp slt i32 %conv, %conv2
  br i1 %cmp, label %if.then, label %if.end

if.then:                                          ; preds = %entry
  %transitionTimesPre32 = getelementptr inbounds %"class.icu_75::OlsonTimeZone", ptr %this1, i32 0, i32 4
  %2 = load ptr, ptr %transitionTimesPre32, align 8
  %3 = load i16, ptr %transIdx.addr, align 2
  %conv3 = sext i16 %3 to i32
  %shl = shl i32 %conv3, 1
  %idxprom = sext i32 %shl to i64
  %arrayidx = getelementptr inbounds i32, ptr %2, i64 %idxprom
  %4 = load i32, ptr %arrayidx, align 4
  %conv4 = zext i32 %4 to i64
  %shl5 = shl i64 %conv4, 32
  %transitionTimesPre326 = getelementptr inbounds %"class.icu_75::OlsonTimeZone", ptr %this1, i32 0, i32 4
  %5 = load ptr, ptr %transitionTimesPre326, align 8
  %6 = load i16, ptr %transIdx.addr, align 2
  %conv7 = sext i16 %6 to i32
  %shl8 = shl i32 %conv7, 1
  %add = add nsw i32 %shl8, 1
  %idxprom9 = sext i32 %add to i64
  %arrayidx10 = getelementptr inbounds i32, ptr %5, i64 %idxprom9
  %7 = load i32, ptr %arrayidx10, align 4
  %conv11 = zext i32 %7 to i64
  %or = or i64 %shl5, %conv11
  store i64 %or, ptr %retval, align 8
  br label %return

if.end:                                           ; preds = %entry
  %transitionCountPre3212 = getelementptr inbounds %"class.icu_75::OlsonTimeZone", ptr %this1, i32 0, i32 1
  %8 = load i16, ptr %transitionCountPre3212, align 8
  %conv13 = sext i16 %8 to i32
  %9 = load i16, ptr %transIdx.addr, align 2
  %conv14 = sext i16 %9 to i32
  %sub = sub nsw i32 %conv14, %conv13
  %conv15 = trunc i32 %sub to i16
  store i16 %conv15, ptr %transIdx.addr, align 2
  %10 = load i16, ptr %transIdx.addr, align 2
  %conv16 = sext i16 %10 to i32
  %transitionCount32 = getelementptr inbounds %"class.icu_75::OlsonTimeZone", ptr %this1, i32 0, i32 2
  %11 = load i16, ptr %transitionCount32, align 2
  %conv17 = sext i16 %11 to i32
  %cmp18 = icmp slt i32 %conv16, %conv17
  br i1 %cmp18, label %if.then19, label %if.end23

if.then19:                                        ; preds = %if.end
  %transitionTimes32 = getelementptr inbounds %"class.icu_75::OlsonTimeZone", ptr %this1, i32 0, i32 5
  %12 = load ptr, ptr %transitionTimes32, align 8
  %13 = load i16, ptr %transIdx.addr, align 2
  %idxprom20 = sext i16 %13 to i64
  %arrayidx21 = getelementptr inbounds i32, ptr %12, i64 %idxprom20
  %14 = load i32, ptr %arrayidx21, align 4
  %conv22 = sext i32 %14 to i64
  store i64 %conv22, ptr %retval, align 8
  br label %return

if.end23:                                         ; preds = %if.end
  %transitionCount3224 = getelementptr inbounds %"class.icu_75::OlsonTimeZone", ptr %this1, i32 0, i32 2
  %15 = load i16, ptr %transitionCount3224, align 2
  %conv25 = sext i16 %15 to i32
  %16 = load i16, ptr %transIdx.addr, align 2
  %conv26 = sext i16 %16 to i32
  %sub27 = sub nsw i32 %conv26, %conv25
  %conv28 = trunc i32 %sub27 to i16
  store i16 %conv28, ptr %transIdx.addr, align 2
  %transitionTimesPost32 = getelementptr inbounds %"class.icu_75::OlsonTimeZone", ptr %this1, i32 0, i32 6
  %17 = load ptr, ptr %transitionTimesPost32, align 8
  %18 = load i16, ptr %transIdx.addr, align 2
  %conv29 = sext i16 %18 to i32
  %shl30 = shl i32 %conv29, 1
  %idxprom31 = sext i32 %shl30 to i64
  %arrayidx32 = getelementptr inbounds i32, ptr %17, i64 %idxprom31
  %19 = load i32, ptr %arrayidx32, align 4
  %conv33 = zext i32 %19 to i64
  %shl34 = shl i64 %conv33, 32
  %transitionTimesPost3235 = getelementptr inbounds %"class.icu_75::OlsonTimeZone", ptr %this1, i32 0, i32 6
  %20 = load ptr, ptr %transitionTimesPost3235, align 8
  %21 = load i16, ptr %transIdx.addr, align 2
  %conv36 = sext i16 %21 to i32
  %shl37 = shl i32 %conv36, 1
  %add38 = add nsw i32 %shl37, 1
  %idxprom39 = sext i32 %add38 to i64
  %arrayidx40 = getelementptr inbounds i32, ptr %20, i64 %idxprom39
  %22 = load i32, ptr %arrayidx40, align 4
  %conv41 = zext i32 %22 to i64
  %or42 = or i64 %shl34, %conv41
  store i64 %or42, ptr %retval, align 8
  br label %return

return:                                           ; preds = %if.end23, %if.then19, %if.then
  %23 = load i64, ptr %retval, align 8
  ret i64 %23
}

; Function Attrs: mustprogress nounwind uwtable
define linkonce_odr noundef signext i16 @_ZNK6icu_7513OlsonTimeZone15transitionCountEv(ptr noundef nonnull align 8 dereferenceable(224) %this) #0 comdat align 2 {
entry:
  %this.addr = alloca ptr, align 8
  store ptr %this, ptr %this.addr, align 8
  %this1 = load ptr, ptr %this.addr, align 8
  %transitionCountPre32 = getelementptr inbounds %"class.icu_75::OlsonTimeZone", ptr %this1, i32 0, i32 1
  %0 = load i16, ptr %transitionCountPre32, align 8
  %conv = sext i16 %0 to i32
  %transitionCount32 = getelementptr inbounds %"class.icu_75::OlsonTimeZone", ptr %this1, i32 0, i32 2
  %1 = load i16, ptr %transitionCount32, align 2
  %conv2 = sext i16 %1 to i32
  %add = add nsw i32 %conv, %conv2
  %transitionCountPost32 = getelementptr inbounds %"class.icu_75::OlsonTimeZone", ptr %this1, i32 0, i32 3
  %2 = load i16, ptr %transitionCountPost32, align 4
  %conv3 = sext i16 %2 to i32
  %add4 = add nsw i32 %add, %conv3
  %conv5 = trunc i32 %add4 to i16
  ret i16 %conv5
}

; Function Attrs: mustprogress uwtable
define noundef signext i8 @_ZNK6icu_7513OlsonTimeZone15useDaylightTimeEv(ptr noundef nonnull align 8 dereferenceable(224) %this) unnamed_addr #1 align 2 {
entry:
  %retval = alloca i8, align 1
  %this.addr = alloca ptr, align 8
  %current = alloca double, align 8
  %year = alloca i32, align 4
  %month = alloca i32, align 4
  %dom = alloca i32, align 4
  %dow = alloca i32, align 4
  %doy = alloca i32, align 4
  %mid = alloca i32, align 4
  %start = alloca double, align 8
  %limit = alloca double, align 8
  %i = alloca i16, align 2
  %transition = alloca double, align 8
  store ptr %this, ptr %this.addr, align 8
  %this1 = load ptr, ptr %this.addr, align 8
  %call = call double @uprv_getUTCtime_75()
  store double %call, ptr %current, align 8
  %finalZone = getelementptr inbounds %"class.icu_75::OlsonTimeZone", ptr %this1, i32 0, i32 10
  %0 = load ptr, ptr %finalZone, align 8
  %cmp = icmp ne ptr %0, null
  br i1 %cmp, label %land.lhs.true, label %if.end

land.lhs.true:                                    ; preds = %entry
  %1 = load double, ptr %current, align 8
  %finalStartMillis = getelementptr inbounds %"class.icu_75::OlsonTimeZone", ptr %this1, i32 0, i32 11
  %2 = load double, ptr %finalStartMillis, align 8
  %cmp2 = fcmp oge double %1, %2
  br i1 %cmp2, label %if.then, label %if.end

if.then:                                          ; preds = %land.lhs.true
  %finalZone3 = getelementptr inbounds %"class.icu_75::OlsonTimeZone", ptr %this1, i32 0, i32 10
  %3 = load ptr, ptr %finalZone3, align 8
  %vtable = load ptr, ptr %3, align 8
  %vfn = getelementptr inbounds ptr, ptr %vtable, i64 9
  %4 = load ptr, ptr %vfn, align 8
  %call4 = call noundef signext i8 %4(ptr noundef nonnull align 8 dereferenceable(160) %3)
  store i8 %call4, ptr %retval, align 1
  br label %return

if.end:                                           ; preds = %land.lhs.true, %entry
  %5 = load double, ptr %current, align 8
  call void @_ZN6icu_755Grego12timeToFieldsEdRiS1_S1_S1_S1_S1_(double noundef %5, ptr noundef nonnull align 4 dereferenceable(4) %year, ptr noundef nonnull align 4 dereferenceable(4) %month, ptr noundef nonnull align 4 dereferenceable(4) %dom, ptr noundef nonnull align 4 dereferenceable(4) %dow, ptr noundef nonnull align 4 dereferenceable(4) %doy, ptr noundef nonnull align 4 dereferenceable(4) %mid)
  %6 = load i32, ptr %year, align 4
  %call5 = call noundef double @_ZN6icu_755Grego11fieldsToDayEiii(i32 noundef %6, i32 noundef 0, i32 noundef 1)
  %mul = fmul double %call5, 8.640000e+04
  store double %mul, ptr %start, align 8
  %7 = load i32, ptr %year, align 4
  %add = add nsw i32 %7, 1
  %call6 = call noundef double @_ZN6icu_755Grego11fieldsToDayEiii(i32 noundef %add, i32 noundef 0, i32 noundef 1)
  %mul7 = fmul double %call6, 8.640000e+04
  store double %mul7, ptr %limit, align 8
  store i16 0, ptr %i, align 2
  br label %for.cond

for.cond:                                         ; preds = %for.inc, %if.end
  %8 = load i16, ptr %i, align 2
  %conv = sext i16 %8 to i32
  %call8 = call noundef signext i16 @_ZNK6icu_7513OlsonTimeZone15transitionCountEv(ptr noundef nonnull align 8 dereferenceable(224) %this1)
  %conv9 = sext i16 %call8 to i32
  %cmp10 = icmp slt i32 %conv, %conv9
  br i1 %cmp10, label %for.body, label %for.end

for.body:                                         ; preds = %for.cond
  %9 = load i16, ptr %i, align 2
  %call11 = call noundef i64 @_ZNK6icu_7513OlsonTimeZone23transitionTimeInSecondsEs(ptr noundef nonnull align 8 dereferenceable(224) %this1, i16 noundef signext %9)
  %conv12 = sitofp i64 %call11 to double
  store double %conv12, ptr %transition, align 8
  %10 = load double, ptr %transition, align 8
  %11 = load double, ptr %limit, align 8
  %cmp13 = fcmp oge double %10, %11
  br i1 %cmp13, label %if.then14, label %if.end15

if.then14:                                        ; preds = %for.body
  br label %for.end

if.end15:                                         ; preds = %for.body
  %12 = load double, ptr %transition, align 8
  %13 = load double, ptr %start, align 8
  %cmp16 = fcmp oge double %12, %13
  br i1 %cmp16, label %land.lhs.true17, label %lor.lhs.false

land.lhs.true17:                                  ; preds = %if.end15
  %14 = load i16, ptr %i, align 2
  %call18 = call noundef i32 @_ZNK6icu_7513OlsonTimeZone11dstOffsetAtEs(ptr noundef nonnull align 8 dereferenceable(224) %this1, i16 noundef signext %14)
  %cmp19 = icmp ne i32 %call18, 0
  br i1 %cmp19, label %if.then26, label %lor.lhs.false

lor.lhs.false:                                    ; preds = %land.lhs.true17, %if.end15
  %15 = load double, ptr %transition, align 8
  %16 = load double, ptr %start, align 8
  %cmp20 = fcmp ogt double %15, %16
  br i1 %cmp20, label %land.lhs.true21, label %if.end27

land.lhs.true21:                                  ; preds = %lor.lhs.false
  %17 = load i16, ptr %i, align 2
  %conv22 = sext i16 %17 to i32
  %sub = sub nsw i32 %conv22, 1
  %conv23 = trunc i32 %sub to i16
  %call24 = call noundef i32 @_ZNK6icu_7513OlsonTimeZone11dstOffsetAtEs(ptr noundef nonnull align 8 dereferenceable(224) %this1, i16 noundef signext %conv23)
  %cmp25 = icmp ne i32 %call24, 0
  br i1 %cmp25, label %if.then26, label %if.end27

if.then26:                                        ; preds = %land.lhs.true21, %land.lhs.true17
  store i8 1, ptr %retval, align 1
  br label %return

if.end27:                                         ; preds = %land.lhs.true21, %lor.lhs.false
  br label %for.inc

for.inc:                                          ; preds = %if.end27
  %18 = load i16, ptr %i, align 2
  %inc = add i16 %18, 1
  store i16 %inc, ptr %i, align 2
  br label %for.cond, !llvm.loop !8

for.end:                                          ; preds = %if.then14, %for.cond
  store i8 0, ptr %retval, align 1
  br label %return

return:                                           ; preds = %for.end, %if.then26, %if.then
  %19 = load i8, ptr %retval, align 1
  ret i8 %19
}