; Function Attrs: mustprogress uwtable
define noundef signext i8 @_ZNK6icu_7513OlsonTimeZone15useDaylightTimeEv(ptr nocapture noundef nonnull readonly align 8 dereferenceable(224) %this) unnamed_addr #2 align 2 {
entry:
  %year = alloca i32, align 4
  %month = alloca i32, align 4
  %dom = alloca i32, align 4
  %dow = alloca i32, align 4
  %doy = alloca i32, align 4
  %mid = alloca i32, align 4
  %call = tail call double @uprv_getUTCtime_75()
  %finalZone = getelementptr inbounds i8, ptr %this, i64 128
  %0 = load ptr, ptr %finalZone, align 8
  %cmp.not = icmp eq ptr %0, null
  %finalStartMillis = getelementptr inbounds i8, ptr %this, i64 136
  %1 = load double, ptr %finalStartMillis, align 8
  %cmp2 = fcmp ult double %call, %1
  %or.cond = select i1 %cmp.not, i1 true, i1 %cmp2
  br i1 %or.cond, label %if.end, label %if.then

if.then:                                          ; preds = %entry
  %vtable = load ptr, ptr %0, align 8
  %vfn = getelementptr inbounds i8, ptr %vtable, i64 72
  %2 = load ptr, ptr %vfn, align 8
  %call4 = tail call noundef signext i8 %2(ptr noundef nonnull align 8 dereferenceable(160) %0)
  br label %return

if.end:                                           ; preds = %entry
  call void @_ZN6icu_755Grego12timeToFieldsEdRiS1_S1_S1_S1_S1_(double noundef %call, ptr noundef nonnull align 4 dereferenceable(4) %year, ptr noundef nonnull align 4 dereferenceable(4) %month, ptr noundef nonnull align 4 dereferenceable(4) %dom, ptr noundef nonnull align 4 dereferenceable(4) %dow, ptr noundef nonnull align 4 dereferenceable(4) %doy, ptr noundef nonnull align 4 dereferenceable(4) %mid)
  %3 = load i32, ptr %year, align 4
  %call5 = call noundef double @_ZN6icu_755Grego11fieldsToDayEiii(i32 noundef %3, i32 noundef 0, i32 noundef 1)
  %mul = fmul double %call5, 8.640000e+04
  %4 = load i32, ptr %year, align 4
  %add = add nsw i32 %4, 1
  %call6 = call noundef double @_ZN6icu_755Grego11fieldsToDayEiii(i32 noundef %add, i32 noundef 0, i32 noundef 1)
  %mul7 = fmul double %call6, 8.640000e+04
  %transitionCountPre32.i = getelementptr inbounds i8, ptr %this, i64 72
  %5 = load i16, ptr %transitionCountPre32.i, align 8
  %transitionCount32.i = getelementptr inbounds i8, ptr %this, i64 74
  %6 = load i16, ptr %transitionCount32.i, align 2
  %add.i = add i16 %6, %5
  %transitionCountPost32.i = getelementptr inbounds i8, ptr %this, i64 76
  %7 = load i16, ptr %transitionCountPost32.i, align 4
  %add4.i = add i16 %add.i, %7
  %cmp1025 = icmp sgt i16 %add4.i, 0
  br i1 %cmp1025, label %for.body.lr.ph, label %return

for.body.lr.ph:                                   ; preds = %if.end
  %transitionTimesPost32.i = getelementptr inbounds i8, ptr %this, i64 96
  %8 = load ptr, ptr %transitionTimesPost32.i, align 8
  %transitionTimes32.i = getelementptr inbounds i8, ptr %this, i64 88
  %9 = load ptr, ptr %transitionTimes32.i, align 8
  %transitionTimesPre32.i = getelementptr inbounds i8, ptr %this, i64 80
  %10 = load ptr, ptr %transitionTimesPre32.i, align 8
  %typeMapData.i = getelementptr inbounds i8, ptr %this, i64 120
  %11 = load ptr, ptr %typeMapData.i, align 8
  %typeOffsets.i = getelementptr inbounds i8, ptr %this, i64 112
  %12 = load ptr, ptr %typeOffsets.i, align 8
  %13 = sext i16 %5 to i64
  %wide.trip.count = zext nneg i16 %add4.i to i64
  %invariant.gep = getelementptr i8, ptr %11, i64 -1
  br label %for.body

for.body:                                         ; preds = %for.body.lr.ph, %for.inc
  %indvars.iv = phi i64 [ 0, %for.body.lr.ph ], [ %indvars.iv.next, %for.inc ]
  %cmp.i = icmp slt i64 %indvars.iv, %13
  br i1 %cmp.i, label %if.then.i, label %if.end.i

if.then.i:                                        ; preds = %for.body
  %14 = trunc i64 %indvars.iv to i32
  %shl.i = shl nsw i32 %14, 1
  %idxprom.i = sext i32 %shl.i to i64
  %arrayidx.i = getelementptr inbounds i32, ptr %10, i64 %idxprom.i
  %15 = load i32, ptr %arrayidx.i, align 4
  %conv4.i = zext i32 %15 to i64
  %shl5.i = shl nuw i64 %conv4.i, 32
  %add.i11 = or disjoint i32 %shl.i, 1
  %idxprom9.i = sext i32 %add.i11 to i64
  %arrayidx10.i = getelementptr inbounds i32, ptr %10, i64 %idxprom9.i
  %16 = load i32, ptr %arrayidx10.i, align 4
  %conv11.i = zext i32 %16 to i64
  %or.i = or disjoint i64 %shl5.i, %conv11.i
  br label %_ZNK6icu_7513OlsonTimeZone23transitionTimeInSecondsEs.exit

if.end.i:                                         ; preds = %for.body
  %17 = trunc i64 %indvars.iv to i16
  %sub.i = sub i16 %17, %5
  %cmp18.i = icmp slt i16 %sub.i, %6
  br i1 %cmp18.i, label %if.then19.i, label %if.end23.i

if.then19.i:                                      ; preds = %if.end.i
  %idxprom20.i = sext i16 %sub.i to i64
  %arrayidx21.i = getelementptr inbounds i32, ptr %9, i64 %idxprom20.i
  %18 = load i32, ptr %arrayidx21.i, align 4
  %conv22.i = sext i32 %18 to i64
  br label %_ZNK6icu_7513OlsonTimeZone23transitionTimeInSecondsEs.exit

if.end23.i:                                       ; preds = %if.end.i
  %sub27.i = sub i16 %sub.i, %6
  %conv29.i = sext i16 %sub27.i to i32
  %shl30.i = shl nsw i32 %conv29.i, 1
  %idxprom31.i = sext i32 %shl30.i to i64
  %arrayidx32.i = getelementptr inbounds i32, ptr %8, i64 %idxprom31.i
  %19 = load i32, ptr %arrayidx32.i, align 4
  %conv33.i = zext i32 %19 to i64
  %shl34.i = shl nuw i64 %conv33.i, 32
  %add38.i = or disjoint i32 %shl30.i, 1
  %idxprom39.i = sext i32 %add38.i to i64
  %arrayidx40.i = getelementptr inbounds i32, ptr %8, i64 %idxprom39.i
  %20 = load i32, ptr %arrayidx40.i, align 4
  %conv41.i = zext i32 %20 to i64
  %or42.i = or disjoint i64 %shl34.i, %conv41.i
  br label %_ZNK6icu_7513OlsonTimeZone23transitionTimeInSecondsEs.exit

_ZNK6icu_7513OlsonTimeZone23transitionTimeInSecondsEs.exit: ; preds = %if.then.i, %if.then19.i, %if.end23.i
  %retval.0.i = phi i64 [ %or.i, %if.then.i ], [ %conv22.i, %if.then19.i ], [ %or42.i, %if.end23.i ]
  %conv12 = sitofp i64 %retval.0.i to double
  %cmp13 = fcmp ugt double %mul7, %conv12
  br i1 %cmp13, label %if.end15, label %return

if.end15:                                         ; preds = %_ZNK6icu_7513OlsonTimeZone23transitionTimeInSecondsEs.exit
  %cmp16 = fcmp ugt double %mul, %conv12
  br i1 %cmp16, label %lor.lhs.false, label %_ZNK6icu_7513OlsonTimeZone11dstOffsetAtEs.exit

_ZNK6icu_7513OlsonTimeZone11dstOffsetAtEs.exit:   ; preds = %if.end15
  %arrayidx.i14 = getelementptr inbounds i8, ptr %11, i64 %indvars.iv
  %21 = load i8, ptr %arrayidx.i14, align 1
  %conv2.i = zext i8 %21 to i64
  %22 = shl nuw nsw i64 %conv2.i, 1
  %23 = or disjoint i64 %22, 1
  %arrayidx6.i = getelementptr inbounds i32, ptr %12, i64 %23
  %24 = load i32, ptr %arrayidx6.i, align 4
  %cmp19.not = icmp eq i32 %24, 0
  br i1 %cmp19.not, label %lor.lhs.false, label %return

lor.lhs.false:                                    ; preds = %_ZNK6icu_7513OlsonTimeZone11dstOffsetAtEs.exit, %if.end15
  %cmp20 = fcmp olt double %mul, %conv12
  br i1 %cmp20, label %land.lhs.true21, label %for.inc

land.lhs.true21:                                  ; preds = %lor.lhs.false
  %cmp.i15.not = icmp eq i64 %indvars.iv, 0
  br i1 %cmp.i15.not, label %_ZNK6icu_7513OlsonTimeZone11dstOffsetAtEs.exit24, label %cond.true.i19

cond.true.i19:                                    ; preds = %land.lhs.true21
  %gep = getelementptr i8, ptr %invariant.gep, i64 %indvars.iv
  %25 = load i8, ptr %gep, align 1
  %conv2.i23 = zext i8 %25 to i64
  %26 = shl nuw nsw i64 %conv2.i23, 1
  %27 = or disjoint i64 %26, 1
  br label %_ZNK6icu_7513OlsonTimeZone11dstOffsetAtEs.exit24

_ZNK6icu_7513OlsonTimeZone11dstOffsetAtEs.exit24: ; preds = %land.lhs.true21, %cond.true.i19
  %cond.i16 = phi i64 [ %27, %cond.true.i19 ], [ 1, %land.lhs.true21 ]
  %arrayidx6.i18 = getelementptr inbounds i32, ptr %12, i64 %cond.i16
  %28 = load i32, ptr %arrayidx6.i18, align 4
  %cmp25.not = icmp eq i32 %28, 0
  br i1 %cmp25.not, label %for.inc, label %return

for.inc:                                          ; preds = %lor.lhs.false, %_ZNK6icu_7513OlsonTimeZone11dstOffsetAtEs.exit24
  %indvars.iv.next = add nuw nsw i64 %indvars.iv, 1
  %exitcond.not = icmp eq i64 %indvars.iv.next, %wide.trip.count
  br i1 %exitcond.not, label %return, label %for.body, !llvm.loop !8

return:                                           ; preds = %_ZNK6icu_7513OlsonTimeZone11dstOffsetAtEs.exit24, %_ZNK6icu_7513OlsonTimeZone11dstOffsetAtEs.exit, %_ZNK6icu_7513OlsonTimeZone23transitionTimeInSecondsEs.exit, %for.inc, %if.end, %if.then
  %retval.0 = phi i8 [ %call4, %if.then ], [ 0, %if.end ], [ 1, %_ZNK6icu_7513OlsonTimeZone11dstOffsetAtEs.exit24 ], [ 1, %_ZNK6icu_7513OlsonTimeZone11dstOffsetAtEs.exit ], [ 0, %_ZNK6icu_7513OlsonTimeZone23transitionTimeInSecondsEs.exit ], [ 0, %for.inc ]
  ret i8 %retval.0
}